; Function Attrs: nounwind uwtable
define i32 @Gia_NodeMffcMapping(ptr noundef %0) local_unnamed_addr #2 {
  %2 = tail call noalias dereferenceable_or_null(16) ptr @malloc(i64 noundef 16) #40
  %3 = getelementptr inbounds nuw i8, ptr %2, i64 4
  store i32 0, ptr %3, align 4
  store i32 100, ptr %2, align 8
  %4 = tail call noalias dereferenceable_or_null(400) ptr @malloc(i64 noundef 400) #40
  %5 = getelementptr inbounds nuw i8, ptr %2, i64 8
  store ptr %4, ptr %5, align 8
  %6 = getelementptr i8, ptr %0, i64 24
  %.val23 = load i32, ptr %6, align 8
  %7 = shl nsw i32 %.val23, 1
  %8 = tail call noalias dereferenceable_or_null(16) ptr @malloc(i64 noundef 16) #40
  %9 = add i32 %7, -1
  %or.cond.i = icmp ult i32 %9, 15
  %spec.store.select.i = select i1 %or.cond.i, i32 16, i32 %7
  %10 = getelementptr inbounds nuw i8, ptr %8, i64 4
  store i32 0, ptr %10, align 4
  store i32 %spec.store.select.i, ptr %8, align 8
  %.not.i = icmp eq i32 %spec.store.select.i, 0
  br i1 %.not.i, label %Vec_IntAlloc.exit.thread, label %Vec_IntAlloc.exit

Vec_IntAlloc.exit:                                ; preds = %1
  %11 = sext i32 %spec.store.select.i to i64
  %12 = shl nsw i64 %11, 2
  %13 = tail call noalias ptr @malloc(i64 noundef %12) #40
  %14 = getelementptr inbounds nuw i8, ptr %8, i64 8
  store ptr %13, ptr %14, align 8
  %.not.i.i = icmp slt i32 %spec.store.select.i, %.val23
  br i1 %.not.i.i, label %18, label %Vec_IntGrow.exit.i

Vec_IntAlloc.exit.thread:                         ; preds = %1
  %15 = getelementptr inbounds nuw i8, ptr %8, i64 8
  store ptr null, ptr %15, align 8
  %.not.i.i29 = icmp sgt i32 %.val23, 0
  br i1 %.not.i.i29, label %.thread, label %Vec_IntFill.exit

.thread:                                          ; preds = %Vec_IntAlloc.exit.thread
  %16 = zext nneg i32 %.val23 to i64
  %17 = shl nuw nsw i64 %16, 2
  br label %23

18:                                               ; preds = %Vec_IntAlloc.exit
  %.not9.i.i = icmp eq ptr %13, null
  %19 = sext i32 %.val23 to i64
  %20 = shl nsw i64 %19, 2
  br i1 %.not9.i.i, label %23, label %21

21:                                               ; preds = %18
  %22 = tail call ptr @realloc(ptr noundef nonnull %13, i64 noundef %20) #39
  br label %27

23:                                               ; preds = %.thread, %18
  %24 = phi i64 [ %17, %.thread ], [ %20, %18 ]
  %25 = phi ptr [ %15, %.thread ], [ %14, %18 ]
  %26 = tail call noalias ptr @malloc(i64 noundef %24) #40
  br label %27

27:                                               ; preds = %23, %21
  %28 = phi ptr [ %14, %21 ], [ %25, %23 ]
  %29 = phi ptr [ %22, %21 ], [ %26, %23 ]
  store ptr %29, ptr %28, align 8
  store i32 %.val23, ptr %8, align 8
  br label %Vec_IntGrow.exit.i

Vec_IntGrow.exit.i:                               ; preds = %27, %Vec_IntAlloc.exit
  %30 = phi ptr [ %28, %27 ], [ %14, %Vec_IntAlloc.exit ]
  %31 = icmp sgt i32 %.val23, 0
  br i1 %31, label %.lr.ph.i, label %Vec_IntFill.exit

.lr.ph.i:                                         ; preds = %Vec_IntGrow.exit.i
  %wide.trip.count.i = zext nneg i32 %.val23 to i64
  br label %32

32:                                               ; preds = %32, %.lr.ph.i
  %indvars.iv.i = phi i64 [ 0, %.lr.ph.i ], [ %indvars.iv.next.i, %32 ]
  %33 = load ptr, ptr %30, align 8
  %34 = getelementptr inbounds nuw i32, ptr %33, i64 %indvars.iv.i
  store i32 0, ptr %34, align 4
  %indvars.iv.next.i = add nuw nsw i64 %indvars.iv.i, 1
  %exitcond.not.i = icmp eq i64 %indvars.iv.next.i, %wide.trip.count.i
  br i1 %exitcond.not.i, label %Vec_IntFill.exit, label %32, !llvm.loop !21

Vec_IntFill.exit:                                 ; preds = %32, %Vec_IntAlloc.exit.thread, %Vec_IntGrow.exit.i
  store i32 %.val23, ptr %10, align 4
  %35 = getelementptr inbounds nuw i8, ptr %0, i64 144
  %36 = load ptr, ptr %35, align 8
  store ptr null, ptr %35, align 8
  tail call void @Gia_ManCreateRefs(ptr noundef %0)
  %37 = getelementptr inbounds nuw i8, ptr %0, i64 72
  %38 = load ptr, ptr %37, align 8
  %39 = getelementptr i8, ptr %38, i64 4
  %.val2431 = load i32, ptr %39, align 4
  %40 = icmp sgt i32 %.val2431, 0
  br i1 %40, label %.lr.ph, label %.critedge

.lr.ph:                                           ; preds = %Vec_IntFill.exit
  %41 = getelementptr i8, ptr %0, i64 32
  br label %42

42:                                               ; preds = %.lr.ph, %42
  %indvars.iv = phi i64 [ 0, %.lr.ph ], [ %indvars.iv.next, %42 ]
  %43 = phi ptr [ %38, %.lr.ph ], [ %54, %42 ]
  %.02232 = phi i32 [ 0, %.lr.ph ], [ %53, %42 ]
  %.val25 = load ptr, ptr %41, align 8
  %44 = getelementptr i8, ptr %43, i64 8
  %.val26.val = load ptr, ptr %44, align 8
  %45 = getelementptr inbounds nuw i32, ptr %.val26.val, i64 %indvars.iv
  %46 = load i32, ptr %45, align 4
  %47 = sext i32 %46 to i64
  %48 = getelementptr inbounds %struct.Gia_Obj_t_, ptr %.val25, i64 %47
  %.val3.i = load i64, ptr %48, align 4
  %49 = trunc i64 %.val3.i to i32
  %50 = and i32 %49, 536870911
  %51 = sub nsw i32 %46, %50
  %52 = tail call i32 @Gia_NodeMffcMapping_rec(ptr noundef nonnull %0, i32 noundef %51, ptr noundef nonnull %8, ptr noundef nonnull %2)
  %53 = add nsw i32 %52, %.02232
  %indvars.iv.next = add nuw nsw i64 %indvars.iv, 1
  %54 = load ptr, ptr %37, align 8
  %55 = getelementptr i8, ptr %54, i64 4
  %.val24 = load i32, ptr %55, align 4
  %56 = sext i32 %.val24 to i64
  %57 = icmp slt i64 %indvars.iv.next, %56
  br i1 %57, label %42, label %.critedge, !llvm.loop !44

.critedge:                                        ; preds = %42, %Vec_IntFill.exit
  %.022.lcssa = phi i32 [ 0, %Vec_IntFill.exit ], [ %53, %42 ]
  store ptr %36, ptr %35, align 8
  %58 = load ptr, ptr %5, align 8
  %.not.i28 = icmp eq ptr %58, null
  br i1 %.not.i28, label %Vec_IntFree.exit, label %59

59:                                               ; preds = %.critedge
  tail call void @free(ptr noundef nonnull %58) #36
  br label %Vec_IntFree.exit

Vec_IntFree.exit:                                 ; preds = %.critedge, %59
  tail call void @free(ptr noundef nonnull %2) #36
  %60 = getelementptr inbounds nuw i8, ptr %0, i64 264
  store ptr %8, ptr %60, align 8
  ret i32 %.022.lcssa
}